target datalayout = "e-m:e-p270:32:32-p271:32:32-p272:64:64-i64:64-i128:128-f80:128-n8:16:32:64-S128"
target triple = "x86_64-pc-linux-gnu"

%struct.PROV_ML_DSA_CTX = type { ptr, ptr, [255 x i8], i64, [32 x i8], i64, i32, i32, i32, [256 x i8], i64, i32 }

; Function Attrs: nounwind uwtable
define internal i32 @ml_dsa_verify(ptr noundef %0, ptr noundef %1, i64 noundef %2, ptr noundef %3, i64 noundef %4) #0 {
  %6 = alloca i32, align 4
  %7 = alloca ptr, align 8
  %8 = alloca ptr, align 8
  %9 = alloca i64, align 8
  %10 = alloca ptr, align 8
  %11 = alloca i64, align 8
  %12 = alloca ptr, align 8
  %13 = alloca i32, align 4
  store ptr %0, ptr %7, align 8, !tbaa !3
  store ptr %1, ptr %8, align 8, !tbaa !7
  store i64 %2, ptr %9, align 8, !tbaa !13
  store ptr %3, ptr %10, align 8, !tbaa !7
  store i64 %4, ptr %11, align 8, !tbaa !13
  call void @llvm.lifetime.start.p0(i64 8, ptr %12) #6
  %14 = load ptr, ptr %7, align 8, !tbaa !3
  store ptr %14, ptr %12, align 8, !tbaa !3
  %15 = call i32 @ossl_prov_is_running()
  %16 = icmp ne i32 %15, 0
  br i1 %16, label %18, label %17

17:                                               ; preds = %5
  store i32 0, ptr %6, align 4
  store i32 1, ptr %13, align 4
  br label %39

18:                                               ; preds = %5
  %19 = load ptr, ptr %12, align 8, !tbaa !3
  %20 = getelementptr inbounds nuw %struct.PROV_ML_DSA_CTX, ptr %19, i32 0, i32 0
  %21 = load ptr, ptr %20, align 8, !tbaa !23
  %22 = load ptr, ptr %12, align 8, !tbaa !3
  %23 = getelementptr inbounds nuw %struct.PROV_ML_DSA_CTX, ptr %22, i32 0, i32 11
  %24 = load i32, ptr %23, align 8, !tbaa !24
  %25 = load ptr, ptr %10, align 8, !tbaa !7
  %26 = load i64, ptr %11, align 8, !tbaa !13
  %27 = load ptr, ptr %12, align 8, !tbaa !3
  %28 = getelementptr inbounds nuw %struct.PROV_ML_DSA_CTX, ptr %27, i32 0, i32 2
  %29 = getelementptr inbounds [255 x i8], ptr %28, i64 0, i64 0
  %30 = load ptr, ptr %12, align 8, !tbaa !3
  %31 = getelementptr inbounds nuw %struct.PROV_ML_DSA_CTX, ptr %30, i32 0, i32 3
  %32 = load i64, ptr %31, align 8, !tbaa !25
  %33 = load ptr, ptr %12, align 8, !tbaa !3
  %34 = getelementptr inbounds nuw %struct.PROV_ML_DSA_CTX, ptr %33, i32 0, i32 6
  %35 = load i32, ptr %34, align 8, !tbaa !26
  %36 = load ptr, ptr %8, align 8, !tbaa !7
  %37 = load i64, ptr %9, align 8, !tbaa !13
  %38 = call i32 @ossl_ml_dsa_verify(ptr noundef %21, i32 noundef %24, ptr noundef %25, i64 noundef %26, ptr noundef %29, i64 noundef %32, i32 noundef %35, ptr noundef %36, i64 noundef %37)
  store i32 %38, ptr %6, align 4
  store i32 1, ptr %13, align 4
  br label %39

39:                                               ; preds = %18, %17
  call void @llvm.lifetime.end.p0(i64 8, ptr %12) #6
  %40 = load i32, ptr %6, align 4
  ret i32 %40
}