; Function Attrs: nounwind uwtable
define internal i32 @ml_dsa_verify(ptr noundef %0, ptr noundef %1, i64 noundef %2, ptr noundef %3, i64 noundef %4) #0 {
  %6 = tail call i32 @ossl_prov_is_running() #6
  %.not = icmp eq i32 %6, 0
  br i1 %.not, label %17, label %7

7:                                                ; preds = %5
  %8 = load ptr, ptr %0, align 8, !tbaa !16
  %9 = getelementptr inbounds nuw i8, ptr %0, i64 600
  %10 = load i32, ptr %9, align 8, !tbaa !17
  %11 = getelementptr inbounds nuw i8, ptr %0, i64 16
  %12 = getelementptr inbounds nuw i8, ptr %0, i64 272
  %13 = load i64, ptr %12, align 8, !tbaa !18
  %14 = getelementptr inbounds nuw i8, ptr %0, i64 320
  %15 = load i32, ptr %14, align 8, !tbaa !12
  %16 = tail call i32 @ossl_ml_dsa_verify(ptr noundef %8, i32 noundef %10, ptr noundef %3, i64 noundef %4, ptr noundef nonnull %11, i64 noundef %13, i32 noundef %15, ptr noundef %1, i64 noundef %2) #6
  br label %17

17:                                               ; preds = %5, %7
  %.0 = phi i32 [ %16, %7 ], [ 0, %5 ]
  ret i32 %.0
}